target datalayout = "e-m:e-p270:32:32-p271:32:32-p272:64:64-i64:64-i128:128-f80:128-n8:16:32:64-S128"
target triple = "x86_64-pc-linux-gnu"

%class.Sample_Debug = type <{ %class.Sample, ptr, ptr, ptr, [3 x float], [3 x float], [3 x float], [3 x float], i32, [4 x i8] }>
%class.Sample = type { ptr, ptr, ptr, ptr, ptr, i8, float, float, float, float, float, float, float, float, float, float, float, float, float, i32, i8, i8, i8, ptr, [9 x ptr], ptr, %class.SampleDebugDraw }
%class.SampleDebugDraw = type { %class.DebugDrawGL }
%class.DebugDrawGL = type { %struct.duDebugDraw }
%struct.duDebugDraw = type { ptr }
%struct.rcContourSet = type <{ ptr, i32, [3 x float], [3 x float], float, float, i32, i32, i32, float, [4 x i8] }>
%struct.rcCompactHeightfield = type { i32, i32, i32, i32, i32, i32, i16, i16, [3 x float], [3 x float], float, float, ptr, ptr, ptr, ptr }

; Function Attrs: mustprogress nounwind uwtable
define dso_local noundef ptr @_ZN12Sample_Debug12getBoundsMinEv(ptr noundef nonnull align 8 dereferenceable(276) %0) unnamed_addr #3 align 2 {
  %2 = alloca ptr, align 8
  %3 = alloca ptr, align 8
  store ptr %0, ptr %3, align 8
  %4 = load ptr, ptr %3, align 8
  %5 = getelementptr inbounds %class.Sample_Debug, ptr %4, i32 0, i32 2
  %6 = load ptr, ptr %5, align 8
  %7 = icmp ne ptr %6, null
  br i1 %7, label %8, label %13

8:                                                ; preds = %1
  %9 = getelementptr inbounds %class.Sample_Debug, ptr %4, i32 0, i32 2
  %10 = load ptr, ptr %9, align 8
  %11 = getelementptr inbounds %struct.rcContourSet, ptr %10, i32 0, i32 2
  %12 = getelementptr inbounds [3 x float], ptr %11, i64 0, i64 0
  store ptr %12, ptr %2, align 8
  br label %30

13:                                               ; preds = %1
  %14 = getelementptr inbounds %class.Sample_Debug, ptr %4, i32 0, i32 1
  %15 = load ptr, ptr %14, align 8
  %16 = icmp ne ptr %15, null
  br i1 %16, label %17, label %22

17:                                               ; preds = %13
  %18 = getelementptr inbounds %class.Sample_Debug, ptr %4, i32 0, i32 1
  %19 = load ptr, ptr %18, align 8
  %20 = getelementptr inbounds %struct.rcCompactHeightfield, ptr %19, i32 0, i32 8
  %21 = getelementptr inbounds [3 x float], ptr %20, i64 0, i64 0
  store ptr %21, ptr %2, align 8
  br label %30

22:                                               ; preds = %13
  %23 = getelementptr inbounds %class.Sample, ptr %4, i32 0, i32 2
  %24 = load ptr, ptr %23, align 8
  %25 = icmp ne ptr %24, null
  br i1 %25, label %26, label %29

26:                                               ; preds = %22
  %27 = getelementptr inbounds %class.Sample_Debug, ptr %4, i32 0, i32 6
  %28 = getelementptr inbounds [3 x float], ptr %27, i64 0, i64 0
  store ptr %28, ptr %2, align 8
  br label %30

29:                                               ; preds = %22
  store ptr null, ptr %2, align 8
  br label %30

30:                                               ; preds = %29, %26, %17, %8
  %31 = load ptr, ptr %2, align 8
  ret ptr %31
}