; Function Attrs: mustprogress nofree norecurse nosync nounwind willreturn memory(argmem: read) uwtable
define dso_local noundef ptr @_ZN12Sample_Debug12getBoundsMinEv(ptr noundef nonnull readonly align 8 dereferenceable(276) %0) unnamed_addr #9 align 2 {
  %2 = getelementptr inbounds i8, ptr %0, i64 208
  %3 = load ptr, ptr %2, align 8
  %.not = icmp eq ptr %3, null
  br i1 %.not, label %6, label %4

4:                                                ; preds = %1
  %5 = getelementptr inbounds i8, ptr %3, i64 12
  br label %15

6:                                                ; preds = %1
  %7 = getelementptr inbounds i8, ptr %0, i64 200
  %8 = load ptr, ptr %7, align 8
  %.not4 = icmp eq ptr %8, null
  br i1 %.not4, label %11, label %9

9:                                                ; preds = %6
  %10 = getelementptr inbounds i8, ptr %8, i64 28
  br label %15

11:                                               ; preds = %6
  %12 = getelementptr inbounds i8, ptr %0, i64 16
  %13 = load ptr, ptr %12, align 8
  %.not5 = icmp eq ptr %13, null
  %14 = getelementptr inbounds i8, ptr %0, i64 248
  %spec.select = select i1 %.not5, ptr null, ptr %14
  br label %15

15:                                               ; preds = %11, %9, %4
  %.0 = phi ptr [ %5, %4 ], [ %10, %9 ], [ %spec.select, %11 ]
  ret ptr %.0
}